target datalayout = "e-m:e-p270:32:32-p271:32:32-p272:64:64-i64:64-i128:128-f80:128-n8:16:32:64-S128"
target triple = "x86_64-pc-linux-gnu"

%struct.AVCodecParser = type { [7 x i32], i32, ptr, ptr, ptr, ptr }

@parser_list = internal constant [64 x ptr] [ptr @ff_aac_parser, ptr @ff_aac_latm_parser, ptr @ff_ac3_parser, ptr @ff_adx_parser, ptr @ff_amr_parser, ptr @ff_apv_parser, ptr @ff_av1_parser, ptr @ff_avs2_parser, ptr @ff_avs3_parser, ptr @ff_bmp_parser, ptr @ff_cavsvideo_parser, ptr @ff_cook_parser, ptr @ff_cri_parser, ptr @ff_dca_parser, ptr @ff_dirac_parser, ptr @ff_dnxhd_parser, ptr @ff_dnxuc_parser, ptr @ff_dolby_e_parser, ptr @ff_dpx_parser, ptr @ff_dvaudio_parser, ptr @ff_dvbsub_parser, ptr @ff_dvdsub_parser, ptr @ff_dvd_nav_parser, ptr @ff_evc_parser, ptr @ff_flac_parser, ptr @ff_ftr_parser, ptr @ff_ffv1_parser, ptr @ff_g723_1_parser, ptr @ff_g729_parser, ptr @ff_gif_parser, ptr @ff_gsm_parser, ptr @ff_h261_parser, ptr @ff_h263_parser, ptr @ff_h264_parser, ptr @ff_hevc_parser, ptr @ff_hdr_parser, ptr @ff_ipu_parser, ptr @ff_jpeg2000_parser, ptr @ff_jpegxl_parser, ptr @ff_misc4_parser, ptr @ff_mjpeg_parser, ptr @ff_mlp_parser, ptr @ff_mpeg4video_parser, ptr @ff_mpegaudio_parser, ptr @ff_mpegvideo_parser, ptr @ff_opus_parser, ptr @ff_png_parser, ptr @ff_pnm_parser, ptr @ff_qoi_parser, ptr @ff_rv34_parser, ptr @ff_sbc_parser, ptr @ff_sipr_parser, ptr @ff_tak_parser, ptr @ff_vc1_parser, ptr @ff_vorbis_parser, ptr @ff_vp3_parser, ptr @ff_vp8_parser, ptr @ff_vp9_parser, ptr @ff_vvc_parser, ptr @ff_webp_parser, ptr @ff_xbm_parser, ptr @ff_xma_parser, ptr @ff_xwd_parser, ptr null], align 16
@ff_aac_parser = external constant %struct.AVCodecParser, align 8
@ff_aac_latm_parser = external constant %struct.AVCodecParser, align 8
@ff_ac3_parser = external constant %struct.AVCodecParser, align 8
@ff_adx_parser = external constant %struct.AVCodecParser, align 8
@ff_amr_parser = external constant %struct.AVCodecParser, align 8
@ff_apv_parser = external constant %struct.AVCodecParser, align 8
@ff_av1_parser = external constant %struct.AVCodecParser, align 8
@ff_avs2_parser = external constant %struct.AVCodecParser, align 8
@ff_avs3_parser = external constant %struct.AVCodecParser, align 8
@ff_bmp_parser = external constant %struct.AVCodecParser, align 8
@ff_cavsvideo_parser = external constant %struct.AVCodecParser, align 8
@ff_cook_parser = external constant %struct.AVCodecParser, align 8
@ff_cri_parser = external constant %struct.AVCodecParser, align 8
@ff_dca_parser = external constant %struct.AVCodecParser, align 8
@ff_dirac_parser = external constant %struct.AVCodecParser, align 8
@ff_dnxhd_parser = external constant %struct.AVCodecParser, align 8
@ff_dnxuc_parser = external constant %struct.AVCodecParser, align 8
@ff_dolby_e_parser = external constant %struct.AVCodecParser, align 8
@ff_dpx_parser = external constant %struct.AVCodecParser, align 8
@ff_dvaudio_parser = external constant %struct.AVCodecParser, align 8
@ff_dvbsub_parser = external constant %struct.AVCodecParser, align 8
@ff_dvdsub_parser = external constant %struct.AVCodecParser, align 8
@ff_dvd_nav_parser = external constant %struct.AVCodecParser, align 8
@ff_evc_parser = external constant %struct.AVCodecParser, align 8
@ff_flac_parser = external constant %struct.AVCodecParser, align 8
@ff_ftr_parser = external constant %struct.AVCodecParser, align 8
@ff_ffv1_parser = external constant %struct.AVCodecParser, align 8
@ff_g723_1_parser = external constant %struct.AVCodecParser, align 8
@ff_g729_parser = external constant %struct.AVCodecParser, align 8
@ff_gif_parser = external constant %struct.AVCodecParser, align 8
@ff_gsm_parser = external constant %struct.AVCodecParser, align 8
@ff_h261_parser = external constant %struct.AVCodecParser, align 8
@ff_h263_parser = external constant %struct.AVCodecParser, align 8
@ff_h264_parser = external constant %struct.AVCodecParser, align 8
@ff_hevc_parser = external constant %struct.AVCodecParser, align 8
@ff_hdr_parser = external constant %struct.AVCodecParser, align 8
@ff_ipu_parser = external constant %struct.AVCodecParser, align 8
@ff_jpeg2000_parser = external constant %struct.AVCodecParser, align 8
@ff_jpegxl_parser = external constant %struct.AVCodecParser, align 8
@ff_misc4_parser = external constant %struct.AVCodecParser, align 8
@ff_mjpeg_parser = external constant %struct.AVCodecParser, align 8
@ff_mlp_parser = external constant %struct.AVCodecParser, align 8
@ff_mpeg4video_parser = external constant %struct.AVCodecParser, align 8
@ff_mpegaudio_parser = external constant %struct.AVCodecParser, align 8
@ff_mpegvideo_parser = external constant %struct.AVCodecParser, align 8
@ff_opus_parser = external constant %struct.AVCodecParser, align 8
@ff_png_parser = external constant %struct.AVCodecParser, align 8
@ff_pnm_parser = external constant %struct.AVCodecParser, align 8
@ff_qoi_parser = external constant %struct.AVCodecParser, align 8
@ff_rv34_parser = external constant %struct.AVCodecParser, align 8
@ff_sbc_parser = external constant %struct.AVCodecParser, align 8
@ff_sipr_parser = external constant %struct.AVCodecParser, align 8
@ff_tak_parser = external constant %struct.AVCodecParser, align 8
@ff_vc1_parser = external constant %struct.AVCodecParser, align 8
@ff_vorbis_parser = external constant %struct.AVCodecParser, align 8
@ff_vp3_parser = external constant %struct.AVCodecParser, align 8
@ff_vp8_parser = external constant %struct.AVCodecParser, align 8
@ff_vp9_parser = external constant %struct.AVCodecParser, align 8
@ff_vvc_parser = external constant %struct.AVCodecParser, align 8
@ff_webp_parser = external constant %struct.AVCodecParser, align 8
@ff_xbm_parser = external constant %struct.AVCodecParser, align 8
@ff_xma_parser = external constant %struct.AVCodecParser, align 8
@ff_xwd_parser = external constant %struct.AVCodecParser, align 8

; Function Attrs: nounwind uwtable
define ptr @av_parser_iterate(ptr noundef %0) #0 {
  %2 = alloca ptr, align 8
  %3 = alloca i64, align 8
  %4 = alloca ptr, align 8
  store ptr %0, ptr %2, align 8, !tbaa !4
  call void @llvm.lifetime.start.p0(i64 8, ptr %3) #2
  %5 = load ptr, ptr %2, align 8, !tbaa !4
  %6 = load ptr, ptr %5, align 8, !tbaa !9
  %7 = ptrtoint ptr %6 to i64
  store i64 %7, ptr %3, align 8, !tbaa !10
  call void @llvm.lifetime.start.p0(i64 8, ptr %4) #2
  %8 = load i64, ptr %3, align 8, !tbaa !10
  %9 = getelementptr inbounds nuw [64 x ptr], ptr @parser_list, i64 0, i64 %8
  %10 = load ptr, ptr %9, align 8, !tbaa !12
  store ptr %10, ptr %4, align 8, !tbaa !12
  %11 = load ptr, ptr %4, align 8, !tbaa !12
  %12 = icmp ne ptr %11, null
  br i1 %12, label %13, label %18

13:                                               ; preds = %1
  %14 = load i64, ptr %3, align 8, !tbaa !10
  %15 = add i64 %14, 1
  %16 = inttoptr i64 %15 to ptr
  %17 = load ptr, ptr %2, align 8, !tbaa !4
  store ptr %16, ptr %17, align 8, !tbaa !9
  br label %18

18:                                               ; preds = %13, %1
  %19 = load ptr, ptr %4, align 8, !tbaa !12
  call void @llvm.lifetime.end.p0(i64 8, ptr %4) #2
  call void @llvm.lifetime.end.p0(i64 8, ptr %3) #2
  ret ptr %19
}

; Function Attrs: nocallback nofree nosync nounwind willreturn memory(argmem: readwrite)
declare void @llvm.lifetime.start.p0(i64 immarg, ptr captures(none)) #1

; Function Attrs: nocallback nofree nosync nounwind willreturn memory(argmem: readwrite)
declare void @llvm.lifetime.end.p0(i64 immarg, ptr captures(none)) #1


!llvm.module.flags = !{!0, !1, !2, !3}

!0 = !{i32 1, !"wchar_size", i32 4}
!1 = !{i32 8, !"PIC Level", i32 2}
!2 = !{i32 7, !"uwtable", i32 2}
!3 = !{i32 1, !"override-stack-alignment", i32 16}
!4 = !{!5, !5, i64 0}
!5 = !{!"any p2 pointer", !6, i64 0}
!6 = !{!"any pointer", !7, i64 0}
!7 = !{!"omnipotent char", !8, i64 0}
!8 = !{!"Simple C/C++ TBAA"}
!9 = !{!6, !6, i64 0}
!10 = !{!11, !11, i64 0}
!11 = !{!"long", !7, i64 0}
!12 = !{!13, !13, i64 0}
!13 = !{!"p1 _ZTS13AVCodecParser", !6, i64 0}
